target datalayout = "e-m:e-p270:32:32-p271:32:32-p272:64:64-i64:64-i128:128-f80:128-n8:16:32:64-S128"
target triple = "x86_64-pc-linux-gnu"

%struct.ma_data_source_base = type { ptr, i64, i64, i64, i64, ptr, ptr, ptr, i32 }
%struct.ma_flac = type { %struct.ma_data_source_base, ptr, ptr, ptr, ptr, i32, ptr }

; Function Attrs: nounwind uwtable
define internal i64 @ma_flac_dr_callback__read(ptr noundef %0, ptr noundef %1, i64 noundef %2) #0 {
  %4 = alloca ptr, align 8
  %5 = alloca ptr, align 8
  %6 = alloca i64, align 8
  %7 = alloca ptr, align 8
  %8 = alloca i32, align 4
  %9 = alloca i64, align 8
  store ptr %0, ptr %4, align 8, !tbaa !25
  store ptr %1, ptr %5, align 8, !tbaa !25
  store i64 %2, ptr %6, align 8, !tbaa !12
  call void @llvm.lifetime.start.p0(i64 8, ptr %7) #16
  %10 = load ptr, ptr %4, align 8, !tbaa !25
  store ptr %10, ptr %7, align 8, !tbaa !25
  call void @llvm.lifetime.start.p0(i64 4, ptr %8) #16
  call void @llvm.lifetime.start.p0(i64 8, ptr %9) #16
  %11 = load ptr, ptr %7, align 8, !tbaa !25
  %12 = getelementptr inbounds nuw %struct.ma_flac, ptr %11, i32 0, i32 1
  %13 = load ptr, ptr %12, align 8, !tbaa !976
  %14 = load ptr, ptr %7, align 8, !tbaa !25
  %15 = getelementptr inbounds nuw %struct.ma_flac, ptr %14, i32 0, i32 4
  %16 = load ptr, ptr %15, align 8, !tbaa !980
  %17 = load ptr, ptr %5, align 8, !tbaa !25
  %18 = load i64, ptr %6, align 8, !tbaa !12
  %19 = call i32 %13(ptr noundef %16, ptr noundef %17, i64 noundef %18, ptr noundef %9)
  store i32 %19, ptr %8, align 4, !tbaa !8
  %20 = load i64, ptr %9, align 8, !tbaa !12
  call void @llvm.lifetime.end.p0(i64 8, ptr %9) #16
  call void @llvm.lifetime.end.p0(i64 4, ptr %8) #16
  call void @llvm.lifetime.end.p0(i64 8, ptr %7) #16
  ret i64 %20
}