; Function Attrs: nounwind uwtable
define internal i64 @ma_flac_dr_callback__read(ptr noundef readonly captures(none) %0, ptr noundef %1, i64 noundef %2) #7 {
  %4 = alloca i64, align 8
  call void @llvm.lifetime.start.p0(i64 8, ptr nonnull %4) #69
  %5 = getelementptr inbounds nuw i8, ptr %0, i64 72
  %6 = load ptr, ptr %5, align 8, !tbaa !1203
  %7 = getelementptr inbounds nuw i8, ptr %0, i64 96
  %8 = load ptr, ptr %7, align 8, !tbaa !1206
  %9 = call i32 %6(ptr noundef %8, ptr noundef %1, i64 noundef %2, ptr noundef nonnull %4) #69
  %10 = load i64, ptr %4, align 8, !tbaa !52
  call void @llvm.lifetime.end.p0(i64 8, ptr nonnull %4) #69
  ret i64 %10
}